; ModuleID = '12/60.c'
source_filename = "12/60.c"
target datalayout = "e-m:e-p270:32:32-p271:32:32-p272:64:64-i64:64-f80:128-n8:16:32:64-S128"
target triple = "x86_64-pc-linux-gnu"

@.str = private unnamed_addr constant [3 x i8] c"%d\00", align 1
@.str.1 = private unnamed_addr constant [4 x i8] c"%d\0A\00", align 1

; Function Attrs: noinline nounwind uwtable
define dso_local i32 @main() #0 {
  %1 = alloca i32, align 4
  %2 = alloca i32, align 4
  %3 = alloca i32, align 4
  %4 = alloca i32, align 4
  %5 = alloca i32, align 4
  %6 = alloca i32, align 4
  %7 = alloca i32, align 4
  %8 = alloca [20 x float], align 16
  store i32 0, i32* %1, align 4
  store i32 0, i32* %2, align 4
  store i32 0, i32* %3, align 4
  store i32 0, i32* %4, align 4
  store i32 0, i32* %5, align 4
  store i32 1, i32* %6, align 4
  store i32 0, i32* %7, align 4
  br label %9

9:                                                ; preds = %86, %0
  store i32 0, i32* %2, align 4
  store i32 0, i32* %3, align 4
  store i32 0, i32* %4, align 4
  store i32 0, i32* %5, align 4
  store i32 1, i32* %6, align 4
  br label %10

10:                                               ; preds = %30, %9
  %11 = load i32, i32* %3, align 4
  %12 = sext i32 %11 to i64
  %13 = getelementptr inbounds [20 x float], [20 x float]* %8, i64 0, i64 %12
  %14 = call i32 (i8*, ...) @__isoc99_scanf(i8* getelementptr inbounds ([3 x i8], [3 x i8]* @.str, i64 0, i64 0), float* %13)
  %15 = load i32, i32* %3, align 4
  %16 = sext i32 %15 to i64
  %17 = getelementptr inbounds [20 x float], [20 x float]* %8, i64 0, i64 %16
  %18 = load float, float* %17, align 4
  %19 = fcmp oeq float %18, 0.000000e+00
  br i1 %19, label %26, label %20

20:                                               ; preds = %10
  %21 = load i32, i32* %3, align 4
  %22 = sext i32 %21 to i64
  %23 = getelementptr inbounds [20 x float], [20 x float]* %8, i64 0, i64 %22
  %24 = load float, float* %23, align 4
  %25 = fcmp oeq float %24, -1.000000e+00
  br i1 %25, label %26, label %27

26:                                               ; preds = %20, %10
  br label %33

27:                                               ; preds = %20
  %28 = load i32, i32* %3, align 4
  %29 = add nsw i32 %28, 1
  store i32 %29, i32* %3, align 4
  br label %30

30:                                               ; preds = %27
  %31 = load i32, i32* %3, align 4
  %32 = icmp slt i32 %31, 20
  br i1 %32, label %10, label %33

33:                                               ; preds = %30, %26
  %34 = load i32, i32* %3, align 4
  %35 = sext i32 %34 to i64
  %36 = getelementptr inbounds [20 x float], [20 x float]* %8, i64 0, i64 %35
  %37 = load float, float* %36, align 4
  %38 = fcmp oeq float %37, -1.000000e+00
  br i1 %38, label %39, label %40

39:                                               ; preds = %33
  store i32 0, i32* %1, align 4
  br label %90

40:                                               ; preds = %33
  br label %41

41:                                               ; preds = %79, %40
  br label %42

42:                                               ; preds = %70, %41
  %43 = load i32, i32* %5, align 4
  %44 = sext i32 %43 to i64
  %45 = getelementptr inbounds [20 x float], [20 x float]* %8, i64 0, i64 %44
  %46 = load float, float* %45, align 4
  %47 = load i32, i32* %6, align 4
  %48 = sext i32 %47 to i64
  %49 = getelementptr inbounds [20 x float], [20 x float]* %8, i64 0, i64 %48
  %50 = load float, float* %49, align 4
  %51 = fmul float %50, 2.000000e+00
  %52 = fcmp oeq float %46, %51
  br i1 %52, label %64, label %53

53:                                               ; preds = %42
  %54 = load i32, i32* %5, align 4
  %55 = sext i32 %54 to i64
  %56 = getelementptr inbounds [20 x float], [20 x float]* %8, i64 0, i64 %55
  %57 = load float, float* %56, align 4
  %58 = load i32, i32* %6, align 4
  %59 = sext i32 %58 to i64
  %60 = getelementptr inbounds [20 x float], [20 x float]* %8, i64 0, i64 %59
  %61 = load float, float* %60, align 4
  %62 = fdiv float %61, 2.000000e+00
  %63 = fcmp oeq float %57, %62
  br i1 %63, label %64, label %67

64:                                               ; preds = %53, %42
  %65 = load i32, i32* %2, align 4
  %66 = add nsw i32 %65, 1
  store i32 %66, i32* %2, align 4
  br label %67

67:                                               ; preds = %64, %53
  %68 = load i32, i32* %6, align 4
  %69 = add nsw i32 %68, 1
  store i32 %69, i32* %6, align 4
  br label %70

70:                                               ; preds = %67
  %71 = load i32, i32* %6, align 4
  %72 = load i32, i32* %3, align 4
  %73 = icmp slt i32 %71, %72
  br i1 %73, label %42, label %74

74:                                               ; preds = %70
  %75 = load i32, i32* %5, align 4
  %76 = add nsw i32 %75, 1
  store i32 %76, i32* %5, align 4
  %77 = load i32, i32* %5, align 4
  %78 = add nsw i32 %77, 1
  store i32 %78, i32* %6, align 4
  br label %79

79:                                               ; preds = %74
  %80 = load i32, i32* %5, align 4
  %81 = load i32, i32* %3, align 4
  %82 = icmp slt i32 %80, %81
  br i1 %82, label %41, label %83

83:                                               ; preds = %79
  %84 = load i32, i32* %2, align 4
  %85 = call i32 (i8*, ...) @printf(i8* getelementptr inbounds ([4 x i8], [4 x i8]* @.str.1, i64 0, i64 0), i32 %84)
  br label %86

86:                                               ; preds = %83
  %87 = load i32, i32* %7, align 4
  %88 = icmp slt i32 %87, 1
  br i1 %88, label %9, label %89

89:                                               ; preds = %86
  store i32 0, i32* %1, align 4
  br label %90

90:                                               ; preds = %89, %39
  %91 = load i32, i32* %1, align 4
  ret i32 %91
}

declare dso_local i32 @__isoc99_scanf(i8*, ...) #1

declare dso_local i32 @printf(i8*, ...) #1


!llvm.module.flags = !{!0}
!llvm.ident = !{!1}

!0 = !{i32 1, !"wchar_size", i32 4}
!1 = !{!"clang version 10.0.0-4ubuntu1 "}
